; Function Attrs: null_pointer_is_valid sspstrong uwtable
define internal i32 @dissect_h245_T_nsd_data(ptr noundef %0, i32 noundef %1, ptr noundef %2, ptr noundef %3, i32 noundef %4) #1 {
  %6 = alloca ptr, align 8
  call void @llvm.lifetime.start.p0(i64 8, ptr nonnull %6) #13
  store ptr null, ptr %6, align 8
  %7 = call i32 @dissect_per_octet_string(ptr noundef %0, i32 noundef %1, ptr noundef %2, ptr noundef %3, i32 noundef %4, i32 noundef -1, i32 noundef -1, i1 noundef zeroext false, ptr noundef nonnull %6)
  %8 = load ptr, ptr %6, align 8
  %.not = icmp eq ptr %8, null
  br i1 %.not, label %19, label %9

9:                                                ; preds = %5
  %10 = call i32 @tvb_reported_length(ptr noundef nonnull %8)
  %.not7 = icmp eq i32 %10, 0
  br i1 %.not7, label %19, label %11

11:                                               ; preds = %9
  %12 = load ptr, ptr @nsp_handle, align 8
  %.not8 = icmp eq ptr %12, null
  %13 = load ptr, ptr @data_handle, align 8
  %14 = select i1 %.not8, ptr %13, ptr %12
  %15 = load ptr, ptr %6, align 8
  %16 = getelementptr inbounds nuw i8, ptr %2, i64 16
  %17 = load ptr, ptr %16, align 8
  %18 = call i32 @call_dissector(ptr noundef %14, ptr noundef %15, ptr noundef %17, ptr noundef %3)
  br label %19

19:                                               ; preds = %11, %9, %5
  call void @llvm.lifetime.end.p0(i64 8, ptr nonnull %6) #13
  ret i32 %7
}